target datalayout = "e-m:e-p270:32:32-p271:32:32-p272:64:64-i64:64-i128:128-f80:128-n8:16:32:64-S128"
target triple = "x86_64-pc-linux-gnu"

%"class.std::__cxx11::basic_string" = type { %"struct.std::__cxx11::basic_string<char>::_Alloc_hider", i64, %union.anon }
%"struct.std::__cxx11::basic_string<char>::_Alloc_hider" = type { ptr }
%union.anon = type { i64, [8 x i8] }
%"class.rocksdb::ErrorHandler" = type { ptr, ptr, %"class.rocksdb::Status", %"class.rocksdb::IOStatus", %"class.rocksdb::InstrumentedCondVar", i8, %"class.std::unique_ptr.59", ptr, i8, i8, i8, i8, %"struct.rocksdb::DBRecoverContext", %"struct.std::atomic", %"class.std::shared_ptr", %"class.rocksdb::autovector" }
%"class.rocksdb::Status" = type { i8, i8, i8, i8, i8, i8, %"class.std::unique_ptr" }
%"class.std::unique_ptr" = type { %"struct.std::__uniq_ptr_data" }
%"struct.std::__uniq_ptr_data" = type { %"class.std::__uniq_ptr_impl" }
%"class.std::__uniq_ptr_impl" = type { %"class.std::tuple.54" }
%"class.std::tuple.54" = type { %"struct.std::_Tuple_impl.55" }
%"struct.std::_Tuple_impl.55" = type { %"struct.std::_Head_base.58" }
%"struct.std::_Head_base.58" = type { ptr }
%"class.rocksdb::IOStatus" = type { %"class.rocksdb::Status" }
%"class.rocksdb::InstrumentedCondVar" = type <{ %"class.rocksdb::port::CondVar", ptr, ptr, i32, [4 x i8] }>
%"class.rocksdb::port::CondVar" = type { %union.pthread_cond_t, ptr }
%union.pthread_cond_t = type { %struct.__pthread_cond_s }
%struct.__pthread_cond_s = type { %union.__atomic_wide_counter, %union.__atomic_wide_counter, [2 x i32], [2 x i32], i32, i32, [2 x i32] }
%union.__atomic_wide_counter = type { i64 }
%"class.std::unique_ptr.59" = type { %"struct.std::__uniq_ptr_data.60" }
%"struct.std::__uniq_ptr_data.60" = type { %"class.std::__uniq_ptr_impl.61" }
%"class.std::__uniq_ptr_impl.61" = type { %"class.std::tuple.62" }
%"class.std::tuple.62" = type { %"struct.std::_Tuple_impl.63" }
%"struct.std::_Tuple_impl.63" = type { %"struct.std::_Head_base.66" }
%"struct.std::_Head_base.66" = type { ptr }
%"struct.rocksdb::DBRecoverContext" = type <{ i32, i8, [3 x i8] }>
%"struct.std::atomic" = type { %"struct.std::__atomic_base" }
%"struct.std::__atomic_base" = type { i8 }
%"class.std::shared_ptr" = type { %"class.std::__shared_ptr" }
%"class.std::__shared_ptr" = type { ptr, %"class.std::__shared_count" }
%"class.std::__shared_count" = type { ptr }
%"class.rocksdb::autovector" = type { i64, [64 x i8], ptr, %"class.std::vector.67" }
%"class.std::vector.67" = type { %"struct.std::_Vector_base.68" }
%"struct.std::_Vector_base.68" = type { %"struct.std::_Vector_base<unsigned long, std::allocator<unsigned long>>::_Vector_impl" }
%"struct.std::_Vector_base<unsigned long, std::allocator<unsigned long>>::_Vector_impl" = type { %"struct.std::_Vector_base<unsigned long, std::allocator<unsigned long>>::_Vector_impl_data" }
%"struct.std::_Vector_base<unsigned long, std::allocator<unsigned long>>::_Vector_impl_data" = type { ptr, ptr, ptr }
%"struct.rocksdb::ImmutableDBOptions" = type { i8, i8, i8, i8, i8, i8, i8, i8, i8, ptr, %"class.std::shared_ptr.72", %"class.std::shared_ptr.75", %"class.std::shared_ptr.78", i8, i32, %"class.std::shared_ptr", i8, %"class.std::vector.81", %"class.std::__cxx11::basic_string", %"class.std::__cxx11::basic_string", i64, i64, i64, i64, i64, i32, i64, i64, i64, i64, i8, i8, i8, i8, i8, i8, i8, i64, %"class.std::shared_ptr.86", i8, %"class.std::vector.89", i8, i8, i8, i8, i8, i64, i64, i8, i8, i8, i8, %"class.std::shared_ptr.94", ptr, i8, i8, i8, i8, i8, i8, i8, i8, i8, i8, i8, i8, i8, i8, i64, %"class.std::shared_ptr.97", i8, i32, i64, i8, %"class.std::__cxx11::basic_string", %"class.rocksdb::SmallEnumSet", i8, %"class.std::shared_ptr.100", i8, i64, i64, i64, i8, i8, %"class.std::shared_ptr.103", ptr, ptr, ptr }
%"class.std::shared_ptr.72" = type { %"class.std::__shared_ptr.73" }
%"class.std::__shared_ptr.73" = type { ptr, %"class.std::__shared_count" }
%"class.std::shared_ptr.75" = type { %"class.std::__shared_ptr.76" }
%"class.std::__shared_ptr.76" = type { ptr, %"class.std::__shared_count" }
%"class.std::shared_ptr.78" = type { %"class.std::__shared_ptr.79" }
%"class.std::__shared_ptr.79" = type { ptr, %"class.std::__shared_count" }
%"class.std::vector.81" = type { %"struct.std::_Vector_base.82" }
%"struct.std::_Vector_base.82" = type { %"struct.std::_Vector_base<rocksdb::DbPath, std::allocator<rocksdb::DbPath>>::_Vector_impl" }
%"struct.std::_Vector_base<rocksdb::DbPath, std::allocator<rocksdb::DbPath>>::_Vector_impl" = type { %"struct.std::_Vector_base<rocksdb::DbPath, std::allocator<rocksdb::DbPath>>::_Vector_impl_data" }
%"struct.std::_Vector_base<rocksdb::DbPath, std::allocator<rocksdb::DbPath>>::_Vector_impl_data" = type { ptr, ptr, ptr }
%"class.std::shared_ptr.86" = type { %"class.std::__shared_ptr.87" }
%"class.std::__shared_ptr.87" = type { ptr, %"class.std::__shared_count" }
%"class.std::vector.89" = type { %"struct.std::_Vector_base.90" }
%"struct.std::_Vector_base.90" = type { %"struct.std::_Vector_base<std::shared_ptr<rocksdb::EventListener>, std::allocator<std::shared_ptr<rocksdb::EventListener>>>::_Vector_impl" }
%"struct.std::_Vector_base<std::shared_ptr<rocksdb::EventListener>, std::allocator<std::shared_ptr<rocksdb::EventListener>>>::_Vector_impl" = type { %"struct.std::_Vector_base<std::shared_ptr<rocksdb::EventListener>, std::allocator<std::shared_ptr<rocksdb::EventListener>>>::_Vector_impl_data" }
%"struct.std::_Vector_base<std::shared_ptr<rocksdb::EventListener>, std::allocator<std::shared_ptr<rocksdb::EventListener>>>::_Vector_impl_data" = type { ptr, ptr, ptr }
%"class.std::shared_ptr.94" = type { %"class.std::__shared_ptr.95" }
%"class.std::__shared_ptr.95" = type { ptr, %"class.std::__shared_count" }
%"class.std::shared_ptr.97" = type { %"class.std::__shared_ptr.98" }
%"class.std::__shared_ptr.98" = type { ptr, %"class.std::__shared_count" }
%"class.rocksdb::SmallEnumSet" = type { i64 }
%"class.std::shared_ptr.100" = type { %"class.std::__shared_ptr.101" }
%"class.std::__shared_ptr.101" = type { ptr, %"class.std::__shared_count" }
%"class.std::shared_ptr.103" = type { %"class.std::__shared_ptr.104" }
%"class.std::__shared_ptr.104" = type { ptr, %"class.std::__shared_count" }
%"class.rocksdb::InstrumentedMutex" = type <{ %"class.rocksdb::port::Mutex", ptr, ptr, i32, [4 x i8] }>
%"class.rocksdb::port::Mutex" = type { %union.pthread_mutex_t }
%union.pthread_mutex_t = type { %struct.__pthread_mutex_s }
%struct.__pthread_mutex_s = type { i32, i32, i32, i32, i32, i16, i16, %struct.__pthread_internal_list }
%struct.__pthread_internal_list = type { ptr, ptr }

@.str.44 = private unnamed_addr constant [113 x i8] c"generated/home/dtcxzyw/WorkSpace/Projects/compilers/llvm-opt-benchmark/bench/rocksdb/rocksdb/db/error_handler.cc\00", align 1
@.str.52 = private unnamed_addr constant [53 x i8] c"[%s:526] ErrorHandler: cleared files in quarantine.\0A\00", align 1

; Function Attrs: mustprogress nounwind uwtable
define linkonce_odr void @_ZNSt12_Destroy_auxILb1EE9__destroyIPmEEvT_S3_(ptr noundef %0, ptr noundef %1) #3 comdat align 2 {
  %3 = alloca ptr, align 8
  %4 = alloca ptr, align 8
  store ptr %0, ptr %3, align 8, !tbaa !302
  store ptr %1, ptr %4, align 8, !tbaa !302
  ret void
}

; Function Attrs: inlinehint mustprogress uwtable
define linkonce_odr void @_ZSt8_DestroyIPmEvT_S1_(ptr noundef %0, ptr noundef %1) #7 comdat {
  %3 = alloca ptr, align 8
  %4 = alloca ptr, align 8
  store ptr %0, ptr %3, align 8, !tbaa !302
  store ptr %1, ptr %4, align 8, !tbaa !302
  %5 = load ptr, ptr %3, align 8, !tbaa !302
  %6 = load ptr, ptr %4, align 8, !tbaa !302
  call void @_ZNSt12_Destroy_auxILb1EE9__destroyIPmEEvT_S3_(ptr noundef %5, ptr noundef %6)
  ret void
}

; Function Attrs: noinline noreturn nounwind uwtable
define linkonce_odr hidden void @__clang_call_terminate(ptr noundef %0) #12 comdat {
  %2 = call ptr @__cxa_begin_catch(ptr %0) #4
  call void @_ZSt9terminatev() #19
  unreachable
}

; Function Attrs: inlinehint mustprogress uwtable
define linkonce_odr void @_ZSt8_DestroyIPmmEvT_S1_RSaIT0_E(ptr noundef %0, ptr noundef %1, ptr noundef nonnull align 1 dereferenceable(1) %2) #7 comdat {
  %4 = alloca ptr, align 8
  %5 = alloca ptr, align 8
  %6 = alloca ptr, align 8
  store ptr %0, ptr %4, align 8, !tbaa !302
  store ptr %1, ptr %5, align 8, !tbaa !302
  store ptr %2, ptr %6, align 8, !tbaa !588
  %7 = load ptr, ptr %4, align 8, !tbaa !302
  %8 = load ptr, ptr %5, align 8, !tbaa !302
  call void @_ZSt8_DestroyIPmEvT_S1_(ptr noundef %7, ptr noundef %8)
  ret void
}

; Function Attrs: mustprogress nounwind uwtable
define linkonce_odr noundef nonnull align 1 dereferenceable(1) ptr @_ZNSt12_Vector_baseImSaImEE19_M_get_Tp_allocatorEv(ptr noundef nonnull align 8 dereferenceable(24) %0) #3 comdat align 2 {
  %2 = alloca ptr, align 8
  store ptr %0, ptr %2, align 8, !tbaa !595
  %3 = load ptr, ptr %2, align 8
  %4 = getelementptr inbounds nuw %"struct.std::_Vector_base.68", ptr %3, i32 0, i32 0
  ret ptr %4
}

; Function Attrs: mustprogress nounwind uwtable
define linkonce_odr void @_ZNSt6vectorImSaImEE15_M_erase_at_endEPm(ptr noundef nonnull align 8 dereferenceable(24) %0, ptr noundef %1) #3 comdat align 2 personality ptr @__gxx_personality_v0 {
  %3 = alloca ptr, align 8
  %4 = alloca ptr, align 8
  %5 = alloca i64, align 8
  store ptr %0, ptr %3, align 8, !tbaa !584
  store ptr %1, ptr %4, align 8, !tbaa !302
  %6 = load ptr, ptr %3, align 8
  call void @llvm.lifetime.start.p0(i64 8, ptr %5) #4
  %7 = getelementptr inbounds nuw %"struct.std::_Vector_base.68", ptr %6, i32 0, i32 0
  %8 = getelementptr inbounds nuw %"struct.std::_Vector_base<unsigned long, std::allocator<unsigned long>>::_Vector_impl_data", ptr %7, i32 0, i32 1
  %9 = load ptr, ptr %8, align 8, !tbaa !586
  %10 = load ptr, ptr %4, align 8, !tbaa !302
  %11 = ptrtoint ptr %9 to i64
  %12 = ptrtoint ptr %10 to i64
  %13 = sub i64 %11, %12
  %14 = sdiv exact i64 %13, 8
  store i64 %14, ptr %5, align 8, !tbaa !4
  %15 = load i64, ptr %5, align 8, !tbaa !4
  %16 = icmp ne i64 %15, 0
  br i1 %16, label %17, label %27

17:                                               ; preds = %2
  %18 = load ptr, ptr %4, align 8, !tbaa !302
  %19 = getelementptr inbounds nuw %"struct.std::_Vector_base.68", ptr %6, i32 0, i32 0
  %20 = getelementptr inbounds nuw %"struct.std::_Vector_base<unsigned long, std::allocator<unsigned long>>::_Vector_impl_data", ptr %19, i32 0, i32 1
  %21 = load ptr, ptr %20, align 8, !tbaa !586
  %22 = call noundef nonnull align 1 dereferenceable(1) ptr @_ZNSt12_Vector_baseImSaImEE19_M_get_Tp_allocatorEv(ptr noundef nonnull align 8 dereferenceable(24) %6) #4
  invoke void @_ZSt8_DestroyIPmmEvT_S1_RSaIT0_E(ptr noundef %18, ptr noundef %21, ptr noundef nonnull align 1 dereferenceable(1) %22)
          to label %23 unwind label %28

23:                                               ; preds = %17
  %24 = load ptr, ptr %4, align 8, !tbaa !302
  %25 = getelementptr inbounds nuw %"struct.std::_Vector_base.68", ptr %6, i32 0, i32 0
  %26 = getelementptr inbounds nuw %"struct.std::_Vector_base<unsigned long, std::allocator<unsigned long>>::_Vector_impl_data", ptr %25, i32 0, i32 1
  store ptr %24, ptr %26, align 8, !tbaa !586
  br label %27

27:                                               ; preds = %23, %2
  call void @llvm.lifetime.end.p0(i64 8, ptr %5) #4
  ret void

28:                                               ; preds = %17
  %29 = landingpad { ptr, i32 }
          catch ptr null
  %30 = extractvalue { ptr, i32 } %29, 0
  call void @__clang_call_terminate(ptr %30) #19
  unreachable
}

; Function Attrs: mustprogress nounwind uwtable
define linkonce_odr void @_ZNSt6vectorImSaImEE5clearEv(ptr noundef nonnull align 8 dereferenceable(24) %0) #3 comdat align 2 {
  %2 = alloca ptr, align 8
  store ptr %0, ptr %2, align 8, !tbaa !584
  %3 = load ptr, ptr %2, align 8
  %4 = getelementptr inbounds nuw %"struct.std::_Vector_base.68", ptr %3, i32 0, i32 0
  %5 = getelementptr inbounds nuw %"struct.std::_Vector_base<unsigned long, std::allocator<unsigned long>>::_Vector_impl_data", ptr %4, i32 0, i32 0
  %6 = load ptr, ptr %5, align 8, !tbaa !590
  call void @_ZNSt6vectorImSaImEE15_M_erase_at_endEPm(ptr noundef nonnull align 8 dereferenceable(24) %3, ptr noundef %6) #4
  ret void
}

; Function Attrs: inlinehint mustprogress nounwind uwtable
define linkonce_odr noundef ptr @_Z23RocksLogShorterFileNamePKc(ptr noundef %0) #1 comdat {
  %2 = alloca ptr, align 8
  store ptr %0, ptr %2, align 8, !tbaa !27
  %3 = load ptr, ptr %2, align 8, !tbaa !27
  %4 = getelementptr inbounds nuw i8, ptr %3, i64 93
  ret ptr %4
}

; Function Attrs: mustprogress nounwind uwtable
define linkonce_odr void @_ZN7rocksdb10autovectorImLm8EE5clearEv(ptr noundef nonnull align 8 dereferenceable(104) %0) #3 comdat align 2 {
  %2 = alloca ptr, align 8
  store ptr %0, ptr %2, align 8, !tbaa !288
  %3 = load ptr, ptr %2, align 8
  br label %4

4:                                                ; preds = %8, %1
  %5 = getelementptr inbounds nuw %"class.rocksdb::autovector", ptr %3, i32 0, i32 0
  %6 = load i64, ptr %5, align 8, !tbaa !303
  %7 = icmp ugt i64 %6, 0
  br i1 %7, label %8, label %12

8:                                                ; preds = %4
  %9 = getelementptr inbounds nuw %"class.rocksdb::autovector", ptr %3, i32 0, i32 0
  %10 = load i64, ptr %9, align 8, !tbaa !303
  %11 = add i64 %10, -1
  store i64 %11, ptr %9, align 8, !tbaa !303
  br label %4, !llvm.loop !307

12:                                               ; preds = %4
  %13 = getelementptr inbounds nuw %"class.rocksdb::autovector", ptr %3, i32 0, i32 3
  call void @_ZNSt6vectorImSaImEE5clearEv(ptr noundef nonnull align 8 dereferenceable(24) %13) #4
  ret void
}

; Function Attrs: mustprogress uwtable
define linkonce_odr void @_ZNK7rocksdb17InstrumentedMutex10AssertHeldEv(ptr noundef nonnull align 8 dereferenceable(60) %0) #5 comdat align 2 {
  %2 = alloca ptr, align 8
  store ptr %0, ptr %2, align 8, !tbaa !175
  %3 = load ptr, ptr %2, align 8
  %4 = getelementptr inbounds nuw %"class.rocksdb::InstrumentedMutex", ptr %3, i32 0, i32 0
  call void @_ZNK7rocksdb4port5Mutex10AssertHeldEv(ptr noundef nonnull align 8 dereferenceable(40) %4)
  ret void
}

; Function Attrs: mustprogress uwtable
define void @_ZN7rocksdb12ErrorHandler22ClearFilesToQuarantineEv(ptr noundef nonnull align 8 dereferenceable(288) %0) #5 align 2 {
  %2 = alloca ptr, align 8
  store ptr %0, ptr %2, align 8, !tbaa !127
  %3 = load ptr, ptr %2, align 8
  %4 = getelementptr inbounds nuw %"class.rocksdb::ErrorHandler", ptr %3, i32 0, i32 7
  %5 = load ptr, ptr %4, align 8, !tbaa !129
  call void @_ZNK7rocksdb17InstrumentedMutex10AssertHeldEv(ptr noundef nonnull align 8 dereferenceable(60) %5)
  %6 = getelementptr inbounds nuw %"class.rocksdb::ErrorHandler", ptr %3, i32 0, i32 15
  call void @_ZN7rocksdb10autovectorImLm8EE5clearEv(ptr noundef nonnull align 8 dereferenceable(104) %6)
  %7 = getelementptr inbounds nuw %"class.rocksdb::ErrorHandler", ptr %3, i32 0, i32 1
  %8 = load ptr, ptr %7, align 8, !tbaa !169
  %9 = getelementptr inbounds nuw %"struct.rocksdb::ImmutableDBOptions", ptr %8, i32 0, i32 12
  %10 = call noundef ptr @_Z23RocksLogShorterFileNamePKc(ptr noundef @.str.44)
  call void (i8, ptr, ptr, ...) @_ZN7rocksdb3LogENS_12InfoLogLevelERKSt10shared_ptrINS_6LoggerEEPKcz(i8 noundef zeroext 1, ptr noundef nonnull align 8 dereferenceable(16) %9, ptr noundef @.str.52, ptr noundef %10)
  ret void
}