; Function Attrs: mustprogress uwtable
define void @_ZN7rocksdb12ErrorHandler22ClearFilesToQuarantineEv(ptr noundef nonnull align 8 captures(none) dereferenceable(288) %0) local_unnamed_addr #4 align 2 personality ptr @__gxx_personality_v0 {
  %2 = getelementptr inbounds nuw i8, ptr %0, i64 144
  %3 = load ptr, ptr %2, align 8, !tbaa !40
  tail call void @_ZNK7rocksdb4port5Mutex10AssertHeldEv(ptr noundef nonnull align 8 dereferenceable(60) %3)
  %4 = getelementptr inbounds nuw i8, ptr %0, i64 184
  %.pr.i = load i64, ptr %4, align 8, !tbaa !209
  %.not1.i = icmp eq i64 %.pr.i, 0
  br i1 %.not1.i, label %5, label %.lr.ph.preheader.i

.lr.ph.preheader.i:                               ; preds = %1
  store i64 0, ptr %4, align 8, !tbaa !209
  br label %5

5:                                                ; preds = %.lr.ph.preheader.i, %1
  %6 = getelementptr inbounds nuw i8, ptr %0, i64 264
  %7 = load ptr, ptr %6, align 8, !tbaa !214
  %8 = getelementptr inbounds nuw i8, ptr %0, i64 272
  %9 = load ptr, ptr %8, align 8, !tbaa !213
  %.not.i.i.i = icmp eq ptr %9, %7
  br i1 %.not.i.i.i, label %_ZN7rocksdb10autovectorImLm8EE5clearEv.exit, label %10

10:                                               ; preds = %5
  store ptr %7, ptr %8, align 8, !tbaa !213
  br label %_ZN7rocksdb10autovectorImLm8EE5clearEv.exit

_ZN7rocksdb10autovectorImLm8EE5clearEv.exit:      ; preds = %5, %10
  %11 = getelementptr inbounds nuw i8, ptr %0, i64 8
  %12 = load ptr, ptr %11, align 8, !tbaa !83
  %13 = getelementptr inbounds nuw i8, ptr %12, i64 56
  tail call void (i8, ptr, ptr, ...) @_ZN7rocksdb3LogENS_12InfoLogLevelERKSt10shared_ptrINS_6LoggerEEPKcz(i8 noundef zeroext 1, ptr noundef nonnull align 8 dereferenceable(16) %13, ptr noundef nonnull @.str.52, ptr noundef nonnull getelementptr inbounds nuw (i8, ptr @.str.44, i64 93))
  ret void
}